; Function Attrs: mustprogress uwtable
define noundef i64 @_ZN18OpenImageIO_v2_6_010Filesystem10read_bytesENS_17basic_string_viewIcSt11char_traitsIcEEEPvmm(ptr nocapture noundef readonly %path, ptr nocapture noundef %buffer, i64 noundef %n, i64 noundef %pos) local_unnamed_addr #5 personality ptr @__gxx_personality_v0 {
entry:
  %agg.tmp = alloca %"class.OpenImageIO_v2_6_0::basic_string_view", align 8
  %agg.tmp1 = alloca %"class.OpenImageIO_v2_6_0::basic_string_view", align 8
  %0 = load ptr, ptr %path, align 8
  store ptr %0, ptr %agg.tmp, align 8
  %m_len.i = getelementptr inbounds i8, ptr %agg.tmp, i64 8
  %m_len.i.i = getelementptr inbounds i8, ptr %path, i64 8
  %1 = load i64, ptr %m_len.i.i, align 8
  store i64 %1, ptr %m_len.i, align 8
  store ptr @.str.4, ptr %agg.tmp1, align 8
  %m_len.i4 = getelementptr inbounds i8, ptr %agg.tmp1, i64 8
  store i64 2, ptr %m_len.i4, align 8
  %call = call noundef ptr @_ZN18OpenImageIO_v2_6_010Filesystem5fopenENS_17basic_string_viewIcSt11char_traitsIcEEES4_(ptr noundef nonnull %agg.tmp, ptr noundef nonnull %agg.tmp1)
  %tobool.not = icmp eq ptr %call, null
  br i1 %tobool.not, label %if.end, label %if.then

if.then:                                          ; preds = %entry
  %call.i = tail call noundef i32 @fseeko(ptr noundef nonnull %call, i64 noundef %pos, i32 noundef 0)
  %call3 = tail call i64 @fread(ptr noundef %buffer, i64 noundef 1, i64 noundef %n, ptr noundef nonnull %call)
  %call4 = tail call i32 @fclose(ptr noundef nonnull %call)
  br label %if.end

if.end:                                           ; preds = %if.then, %entry
  %ret.0 = phi i64 [ %call3, %if.then ], [ 0, %entry ]
  ret i64 %ret.0
}